; Function Attrs: nounwind uwtable
define noalias noundef nonnull ptr @l_Lean_withTraceNode___at_Lean_Meta_SynthInstance_tryResolve___spec__2___lambda__2(ptr noundef %0, i8 noundef zeroext %1, ptr noundef %2, ptr noundef %3, ptr noundef %4, ptr noundef %5, i8 noundef zeroext %6, double noundef %7, double noundef %8, ptr noundef %9, ptr noundef %10, ptr noundef %11, ptr noundef %12, ptr noundef %13, ptr noundef %14) local_unnamed_addr #1 {
  %16 = icmp eq i8 %6, 0
  br i1 %16, label %17, label %22

17:                                               ; preds = %15
  %18 = load double, ptr @l_Lean_withTraceNode___at_Lean_Meta_SynthInstance_newSubgoal___spec__8___lambda__2___closed__1, align 8, !tbaa !21
  tail call void @lean_inc_heartbeat() #7
  %19 = tail call noalias ptr @mi_malloc_small(i64 noundef 48) #7
  %20 = icmp eq ptr %19, null
  br i1 %20, label %21, label %lean_alloc_ctor.exit

21:                                               ; preds = %17
  tail call void @lean_internal_panic_out_of_memory() #8
  unreachable

22:                                               ; preds = %15
  tail call void @lean_inc_heartbeat() #7
  %23 = tail call noalias ptr @mi_malloc_small(i64 noundef 48) #7
  %24 = icmp eq ptr %23, null
  br i1 %24, label %25, label %lean_alloc_ctor.exit

25:                                               ; preds = %22
  tail call void @lean_internal_panic_out_of_memory() #8
  unreachable

lean_alloc_ctor.exit:                             ; preds = %22, %17
  %.sink62 = phi ptr [ %19, %17 ], [ %23, %22 ]
  %.sink51 = phi double [ %18, %17 ], [ %7, %22 ]
  %.sink48 = phi double [ %18, %17 ], [ %8, %22 ]
  %26 = getelementptr inbounds nuw i8, ptr %.sink62, i64 4
  %27 = getelementptr inbounds nuw i8, ptr %.sink62, i64 40
  store i64 0, ptr %27, align 8, !tbaa !12
  store i32 1, ptr %.sink62, align 4, !tbaa !4
  store i32 131120, ptr %26, align 4
  %28 = getelementptr inbounds nuw i8, ptr %.sink62, i64 8
  store ptr %0, ptr %28, align 8, !tbaa !9
  %29 = getelementptr inbounds nuw i8, ptr %.sink62, i64 16
  store ptr %2, ptr %29, align 8, !tbaa !9
  %30 = getelementptr inbounds nuw i8, ptr %.sink62, i64 24
  store double %.sink51, ptr %30, align 8, !tbaa !21
  %31 = getelementptr inbounds nuw i8, ptr %.sink62, i64 32
  store double %.sink48, ptr %31, align 8, !tbaa !21
  store i8 %1, ptr %27, align 1, !tbaa !18
  %32 = tail call ptr @l_Lean_withTraceNode___at_Lean_Meta_SynthInstance_tryResolve___spec__2___lambda__1(ptr noundef %3, ptr noundef %4, ptr noundef %9, ptr noundef %5, ptr noundef nonnull %.sink62, ptr nonnull poison, ptr noundef %10, ptr noundef %11, ptr noundef %12, ptr noundef %13, ptr noundef %14)
  ret ptr %32
}